target datalayout = "e-m:e-p270:32:32-p271:32:32-p272:64:64-i64:64-i128:128-f80:128-n8:16:32:64-S128"
target triple = "x86_64-pc-linux-gnu"

%"class.std::__cxx11::basic_string" = type { %"struct.std::__cxx11::basic_string<char>::_Alloc_hider", i64, %union.anon }
%"struct.std::__cxx11::basic_string<char>::_Alloc_hider" = type { ptr }
%union.anon = type { i64, [8 x i8] }
%class.V3Number = type { %class.V3NumberData, ptr, ptr }
%class.V3NumberData = type <{ %union.anon.0, i32, i8, i8, [2 x i8] }>
%union.anon.0 = type { %"class.std::__cxx11::basic_string" }
%class.AstNode = type { ptr, ptr, ptr, ptr, ptr, ptr, ptr, ptr, %class.VNType, %struct.anon, i8, i32, ptr, ptr, ptr, ptr, %class.VNUser, i32, i32, %class.VNUser, %class.VNUser, i32, i32, %class.VNUser }
%class.VNType = type { i16 }
%struct.anon = type { i8 }
%class.VNUser = type { %union.anon.4 }
%union.anon.4 = type { ptr }

; Function Attrs: mustprogress nounwind uwtable
define linkonce_odr dso_local noundef ptr @_ZNK7AstNode8filelineEv(ptr noundef nonnull align 8 dereferenceable(152) %0) #7 comdat align 2 {
  %2 = alloca ptr, align 8
  store ptr %0, ptr %2, align 8, !tbaa !32
  %3 = load ptr, ptr %2, align 8
  %4 = getelementptr inbounds nuw %class.AstNode, ptr %3, i32 0, i32 14
  %5 = load ptr, ptr %4, align 8, !tbaa !137
  ret ptr %5
}

; Function Attrs: mustprogress uwtable
define dso_local void @_ZN8V3Number5nodepEP7AstNode(ptr noundef nonnull align 8 dereferenceable(56) %0, ptr noundef %1) #4 align 2 {
  %3 = alloca ptr, align 8
  %4 = alloca ptr, align 8
  store ptr %0, ptr %3, align 8, !tbaa !4
  store ptr %1, ptr %4, align 8, !tbaa !32
  %5 = load ptr, ptr %3, align 8
  %6 = load ptr, ptr %4, align 8, !tbaa !32
  %7 = getelementptr inbounds nuw %class.V3Number, ptr %5, i32 0, i32 1
  store ptr %6, ptr %7, align 8, !tbaa !11
  %8 = load ptr, ptr %4, align 8, !tbaa !32
  %9 = icmp ne ptr %8, null
  br i1 %9, label %11, label %10

10:                                               ; preds = %2
  br label %15

11:                                               ; preds = %2
  %12 = load ptr, ptr %4, align 8, !tbaa !32
  %13 = call noundef ptr @_ZNK7AstNode8filelineEv(ptr noundef nonnull align 8 dereferenceable(152) %12)
  %14 = getelementptr inbounds nuw %class.V3Number, ptr %5, i32 0, i32 2
  store ptr %13, ptr %14, align 8, !tbaa !19
  br label %15

15:                                               ; preds = %11, %10
  ret void
}