; Function Attrs: mustprogress nofree norecurse nosync nounwind willreturn memory(argmem: readwrite) uwtable
define dso_local void @_ZN8V3Number5nodepEP7AstNode(ptr noundef nonnull writeonly align 8 captures(none) dereferenceable(56) initializes((40, 48)) %0, ptr noundef %1) #12 align 2 {
  %3 = getelementptr inbounds nuw i8, ptr %0, i64 40
  store ptr %1, ptr %3, align 8, !tbaa !27
  %.not = icmp eq ptr %1, null
  br i1 %.not, label %8, label %4

4:                                                ; preds = %2
  %5 = getelementptr inbounds nuw i8, ptr %1, i64 88
  %6 = load ptr, ptr %5, align 8, !tbaa !47
  %7 = getelementptr inbounds nuw i8, ptr %0, i64 48
  store ptr %6, ptr %7, align 8, !tbaa !35
  br label %8

8:                                                ; preds = %2, %4
  ret void
}